target datalayout = "e-m:e-p270:32:32-p271:32:32-p272:64:64-i64:64-i128:128-f80:128-n8:16:32:64-S128"
target triple = "x86_64-unknown-linux-gnu"

%struct.grpc_closure = type { %union.anon, ptr, ptr, %union.anon.2 }
%union.anon = type { ptr }
%union.anon.2 = type { i64 }
%struct.grpc_transport_stream_op_batch = type { ptr, ptr, i8, %struct.grpc_handler_private_op_data }
%struct.grpc_handler_private_op_data = type { ptr, %struct.grpc_closure }

@.str.1 = private unnamed_addr constant [156 x i8] c"generated/home/dtcxzyw/WorkSpace/Projects/compilers/llvm-opt-benchmark/bench/grpc/grpc/src/core/ext/filters/client_channel/retry_filter_legacy_call_data.cc\00", align 1
@.str.85 = private unnamed_addr constant [18 x i8] c"return (size_t)-1\00", align 1

; Function Attrs: mustprogress uwtable
define noundef i64 @_ZN9grpc_core11RetryFilter14LegacyCallData13GetBatchIndexEP30grpc_transport_stream_op_batch(ptr noundef %batch) #4 align 2 {
entry:
  %retval = alloca i64, align 8
  %batch.addr = alloca ptr, align 8
  store ptr %batch, ptr %batch.addr, align 8
  %0 = load ptr, ptr %batch.addr, align 8
  %send_initial_metadata = getelementptr inbounds %struct.grpc_transport_stream_op_batch, ptr %0, i32 0, i32 2
  %bf.load = load i8, ptr %send_initial_metadata, align 8
  %bf.clear = and i8 %bf.load, 1
  %bf.cast = trunc i8 %bf.clear to i1
  br i1 %bf.cast, label %if.then, label %if.end

if.then:                                          ; preds = %entry
  store i64 0, ptr %retval, align 8
  br label %return

if.end:                                           ; preds = %entry
  %1 = load ptr, ptr %batch.addr, align 8
  %send_message = getelementptr inbounds %struct.grpc_transport_stream_op_batch, ptr %1, i32 0, i32 2
  %bf.load1 = load i8, ptr %send_message, align 8
  %bf.lshr = lshr i8 %bf.load1, 2
  %bf.clear2 = and i8 %bf.lshr, 1
  %bf.cast3 = trunc i8 %bf.clear2 to i1
  br i1 %bf.cast3, label %if.then4, label %if.end5

if.then4:                                         ; preds = %if.end
  store i64 1, ptr %retval, align 8
  br label %return

if.end5:                                          ; preds = %if.end
  %2 = load ptr, ptr %batch.addr, align 8
  %send_trailing_metadata = getelementptr inbounds %struct.grpc_transport_stream_op_batch, ptr %2, i32 0, i32 2
  %bf.load6 = load i8, ptr %send_trailing_metadata, align 8
  %bf.lshr7 = lshr i8 %bf.load6, 1
  %bf.clear8 = and i8 %bf.lshr7, 1
  %bf.cast9 = trunc i8 %bf.clear8 to i1
  br i1 %bf.cast9, label %if.then10, label %if.end11

if.then10:                                        ; preds = %if.end5
  store i64 2, ptr %retval, align 8
  br label %return

if.end11:                                         ; preds = %if.end5
  %3 = load ptr, ptr %batch.addr, align 8
  %recv_initial_metadata = getelementptr inbounds %struct.grpc_transport_stream_op_batch, ptr %3, i32 0, i32 2
  %bf.load12 = load i8, ptr %recv_initial_metadata, align 8
  %bf.lshr13 = lshr i8 %bf.load12, 3
  %bf.clear14 = and i8 %bf.lshr13, 1
  %bf.cast15 = trunc i8 %bf.clear14 to i1
  br i1 %bf.cast15, label %if.then16, label %if.end17

if.then16:                                        ; preds = %if.end11
  store i64 3, ptr %retval, align 8
  br label %return

if.end17:                                         ; preds = %if.end11
  %4 = load ptr, ptr %batch.addr, align 8
  %recv_message = getelementptr inbounds %struct.grpc_transport_stream_op_batch, ptr %4, i32 0, i32 2
  %bf.load18 = load i8, ptr %recv_message, align 8
  %bf.lshr19 = lshr i8 %bf.load18, 4
  %bf.clear20 = and i8 %bf.lshr19, 1
  %bf.cast21 = trunc i8 %bf.clear20 to i1
  br i1 %bf.cast21, label %if.then22, label %if.end23

if.then22:                                        ; preds = %if.end17
  store i64 4, ptr %retval, align 8
  br label %return

if.end23:                                         ; preds = %if.end17
  %5 = load ptr, ptr %batch.addr, align 8
  %recv_trailing_metadata = getelementptr inbounds %struct.grpc_transport_stream_op_batch, ptr %5, i32 0, i32 2
  %bf.load24 = load i8, ptr %recv_trailing_metadata, align 8
  %bf.lshr25 = lshr i8 %bf.load24, 5
  %bf.clear26 = and i8 %bf.lshr25, 1
  %bf.cast27 = trunc i8 %bf.clear26 to i1
  br i1 %bf.cast27, label %if.then28, label %if.end29

if.then28:                                        ; preds = %if.end23
  store i64 5, ptr %retval, align 8
  br label %return

if.end29:                                         ; preds = %if.end23
  br label %do.body

do.body:                                          ; preds = %if.end29
  call void @gpr_unreachable_code(ptr noundef @.str.85, ptr noundef @.str.1, i32 noundef 1814) #18
  unreachable

do.end:                                           ; No predecessors!
  call void @llvm.trap()
  unreachable

return:                                           ; preds = %if.then28, %if.then22, %if.then16, %if.then10, %if.then4, %if.then
  %6 = load i64, ptr %retval, align 8
  ret i64 %6
}