; Function Attrs: mustprogress uwtable
define noundef i64 @_ZN9grpc_core11RetryFilter14LegacyCallData13GetBatchIndexEP30grpc_transport_stream_op_batch(ptr nocapture noundef readonly %batch) local_unnamed_addr #3 align 2 {
entry:
  %send_initial_metadata = getelementptr inbounds i8, ptr %batch, i64 16
  %bf.load = load i8, ptr %send_initial_metadata, align 8
  %0 = and i8 %bf.load, 1
  %bf.cast.not = icmp eq i8 %0, 0
  br i1 %bf.cast.not, label %if.end, label %return

if.end:                                           ; preds = %entry
  %1 = and i8 %bf.load, 4
  %bf.cast3.not = icmp eq i8 %1, 0
  br i1 %bf.cast3.not, label %if.end5, label %return

if.end5:                                          ; preds = %if.end
  %2 = and i8 %bf.load, 2
  %bf.cast9.not = icmp eq i8 %2, 0
  br i1 %bf.cast9.not, label %if.end11, label %return

if.end11:                                         ; preds = %if.end5
  %3 = and i8 %bf.load, 8
  %bf.cast15.not = icmp eq i8 %3, 0
  br i1 %bf.cast15.not, label %if.end17, label %return

if.end17:                                         ; preds = %if.end11
  %4 = and i8 %bf.load, 16
  %bf.cast21.not = icmp eq i8 %4, 0
  br i1 %bf.cast21.not, label %if.end23, label %return

if.end23:                                         ; preds = %if.end17
  %5 = and i8 %bf.load, 32
  %bf.cast27.not = icmp eq i8 %5, 0
  br i1 %bf.cast27.not, label %do.body, label %return

do.body:                                          ; preds = %if.end23
  tail call void @gpr_unreachable_code(ptr noundef nonnull @.str.85, ptr noundef nonnull @.str.1, i32 noundef 1814) #28
  unreachable

return:                                           ; preds = %if.end23, %if.end17, %if.end11, %if.end5, %if.end, %entry
  %retval.0 = phi i64 [ 0, %entry ], [ 1, %if.end ], [ 2, %if.end5 ], [ 3, %if.end11 ], [ 4, %if.end17 ], [ 5, %if.end23 ]
  ret i64 %retval.0
}